target datalayout = "e-m:e-p270:32:32-p271:32:32-p272:64:64-i64:64-i128:128-f80:128-n8:16:32:64-S128"
target triple = "x86_64-pc-linux-gnu"

%struct.bignum_st = type { ptr, i32, i32, i32, i32 }

; Function Attrs: inlinehint nounwind uwtable
define internal i32 @constant_time_msb(i32 noundef %0) #6 {
  %2 = alloca i32, align 4
  store i32 %0, ptr %2, align 4, !tbaa !13
  %3 = load i32, ptr %2, align 4, !tbaa !13
  %4 = ashr i32 %3, 31
  ret i32 %4
}

; Function Attrs: inlinehint nounwind uwtable
define internal i32 @constant_time_is_zero(i32 noundef %0) #6 {
  %2 = alloca i32, align 4
  store i32 %0, ptr %2, align 4, !tbaa !13
  %3 = load i32, ptr %2, align 4, !tbaa !13
  %4 = xor i32 %3, -1
  %5 = load i32, ptr %2, align 4, !tbaa !13
  %6 = sub i32 %5, 1
  %7 = and i32 %4, %6
  %8 = call i32 @constant_time_msb(i32 noundef %7)
  ret i32 %8
}

; Function Attrs: inlinehint nounwind uwtable
define internal i32 @constant_time_eq(i32 noundef %0, i32 noundef %1) #6 {
  %3 = alloca i32, align 4
  %4 = alloca i32, align 4
  store i32 %0, ptr %3, align 4, !tbaa !13
  store i32 %1, ptr %4, align 4, !tbaa !13
  %5 = load i32, ptr %3, align 4, !tbaa !13
  %6 = load i32, ptr %4, align 4, !tbaa !13
  %7 = xor i32 %5, %6
  %8 = call i32 @constant_time_is_zero(i32 noundef %7)
  ret i32 %8
}

; Function Attrs: inlinehint nounwind uwtable
define internal i32 @constant_time_eq_int(i32 noundef %0, i32 noundef %1) #6 {
  %3 = alloca i32, align 4
  %4 = alloca i32, align 4
  store i32 %0, ptr %3, align 4, !tbaa !13
  store i32 %1, ptr %4, align 4, !tbaa !13
  %5 = load i32, ptr %3, align 4, !tbaa !13
  %6 = load i32, ptr %4, align 4, !tbaa !13
  %7 = call i32 @constant_time_eq(i32 noundef %5, i32 noundef %6)
  ret i32 %7
}

; Function Attrs: nounwind uwtable
define internal i32 @copy_from_prebuf(ptr noundef %0, i32 noundef %1, ptr noundef %2, i32 noundef %3, i32 noundef %4) #0 {
  %6 = alloca i32, align 4
  %7 = alloca ptr, align 8
  %8 = alloca i32, align 4
  %9 = alloca ptr, align 8
  %10 = alloca i32, align 4
  %11 = alloca i32, align 4
  %12 = alloca i32, align 4
  %13 = alloca i32, align 4
  %14 = alloca i32, align 4
  %15 = alloca ptr, align 8
  %16 = alloca i32, align 4
  %17 = alloca i64, align 8
  %18 = alloca i32, align 4
  %19 = alloca i64, align 8
  %20 = alloca i64, align 8
  %21 = alloca i64, align 8
  %22 = alloca i64, align 8
  %23 = alloca i64, align 8
  store ptr %0, ptr %7, align 8, !tbaa !6
  store i32 %1, ptr %8, align 4, !tbaa !13
  store ptr %2, ptr %9, align 8, !tbaa !35
  store i32 %3, ptr %10, align 4, !tbaa !13
  store i32 %4, ptr %11, align 4, !tbaa !13
  call void @llvm.lifetime.start.p0(i64 4, ptr %12) #7
  call void @llvm.lifetime.start.p0(i64 4, ptr %13) #7
  call void @llvm.lifetime.start.p0(i64 4, ptr %14) #7
  %24 = load i32, ptr %11, align 4, !tbaa !13
  %25 = shl i32 1, %24
  store i32 %25, ptr %14, align 4, !tbaa !13
  call void @llvm.lifetime.start.p0(i64 8, ptr %15) #7
  %26 = load ptr, ptr %9, align 8, !tbaa !35
  store ptr %26, ptr %15, align 8, !tbaa !41
  %27 = load ptr, ptr %7, align 8, !tbaa !6
  %28 = load i32, ptr %8, align 4, !tbaa !13
  %29 = sext i32 %28 to i64
  %30 = call ptr @bn_wexpand(ptr noundef %27, i64 noundef %29)
  %31 = icmp eq ptr %30, null
  br i1 %31, label %32, label %33

32:                                               ; preds = %5
  store i32 0, ptr %6, align 4
  store i32 1, ptr %16, align 4
  br label %198

33:                                               ; preds = %5
  %34 = load i32, ptr %11, align 4, !tbaa !13
  %35 = icmp sle i32 %34, 3
  br i1 %35, label %36, label %80

36:                                               ; preds = %33
  store i32 0, ptr %12, align 4, !tbaa !13
  br label %37

37:                                               ; preds = %72, %36
  %38 = load i32, ptr %12, align 4, !tbaa !13
  %39 = load i32, ptr %8, align 4, !tbaa !13
  %40 = icmp slt i32 %38, %39
  br i1 %40, label %41, label %79

41:                                               ; preds = %37
  call void @llvm.lifetime.start.p0(i64 8, ptr %17) #7
  store i64 0, ptr %17, align 8, !tbaa !23
  store i32 0, ptr %13, align 4, !tbaa !13
  br label %42

42:                                               ; preds = %61, %41
  %43 = load i32, ptr %13, align 4, !tbaa !13
  %44 = load i32, ptr %14, align 4, !tbaa !13
  %45 = icmp slt i32 %43, %44
  br i1 %45, label %46, label %64

46:                                               ; preds = %42
  %47 = load ptr, ptr %15, align 8, !tbaa !41
  %48 = load i32, ptr %13, align 4, !tbaa !13
  %49 = sext i32 %48 to i64
  %50 = getelementptr inbounds i64, ptr %47, i64 %49
  %51 = load volatile i64, ptr %50, align 8, !tbaa !23
  %52 = load i32, ptr %13, align 4, !tbaa !13
  %53 = load i32, ptr %10, align 4, !tbaa !13
  %54 = call i32 @constant_time_eq_int(i32 noundef %52, i32 noundef %53)
  %55 = and i32 %54, 1
  %56 = zext i32 %55 to i64
  %57 = sub i64 0, %56
  %58 = and i64 %51, %57
  %59 = load i64, ptr %17, align 8, !tbaa !23
  %60 = or i64 %59, %58
  store i64 %60, ptr %17, align 8, !tbaa !23
  br label %61

61:                                               ; preds = %46
  %62 = load i32, ptr %13, align 4, !tbaa !13
  %63 = add nsw i32 %62, 1
  store i32 %63, ptr %13, align 4, !tbaa !13
  br label %42, !llvm.loop !63

64:                                               ; preds = %42
  %65 = load i64, ptr %17, align 8, !tbaa !23
  %66 = load ptr, ptr %7, align 8, !tbaa !6
  %67 = getelementptr inbounds nuw %struct.bignum_st, ptr %66, i32 0, i32 0
  %68 = load ptr, ptr %67, align 8, !tbaa !22
  %69 = load i32, ptr %12, align 4, !tbaa !13
  %70 = sext i32 %69 to i64
  %71 = getelementptr inbounds i64, ptr %68, i64 %70
  store i64 %65, ptr %71, align 8, !tbaa !23
  call void @llvm.lifetime.end.p0(i64 8, ptr %17) #7
  br label %72

72:                                               ; preds = %64
  %73 = load i32, ptr %12, align 4, !tbaa !13
  %74 = add nsw i32 %73, 1
  store i32 %74, ptr %12, align 4, !tbaa !13
  %75 = load i32, ptr %14, align 4, !tbaa !13
  %76 = load ptr, ptr %15, align 8, !tbaa !41
  %77 = sext i32 %75 to i64
  %78 = getelementptr inbounds i64, ptr %76, i64 %77
  store ptr %78, ptr %15, align 8, !tbaa !41
  br label %37, !llvm.loop !64

79:                                               ; preds = %37
  br label %193

80:                                               ; preds = %33
  call void @llvm.lifetime.start.p0(i64 4, ptr %18) #7
  %81 = load i32, ptr %11, align 4, !tbaa !13
  %82 = sub nsw i32 %81, 2
  %83 = shl i32 1, %82
  store i32 %83, ptr %18, align 4, !tbaa !13
  call void @llvm.lifetime.start.p0(i64 8, ptr %19) #7
  call void @llvm.lifetime.start.p0(i64 8, ptr %20) #7
  call void @llvm.lifetime.start.p0(i64 8, ptr %21) #7
  call void @llvm.lifetime.start.p0(i64 8, ptr %22) #7
  %84 = load i32, ptr %10, align 4, !tbaa !13
  %85 = load i32, ptr %11, align 4, !tbaa !13
  %86 = sub nsw i32 %85, 2
  %87 = ashr i32 %84, %86
  store i32 %87, ptr %12, align 4, !tbaa !13
  %88 = load i32, ptr %18, align 4, !tbaa !13
  %89 = sub nsw i32 %88, 1
  %90 = load i32, ptr %10, align 4, !tbaa !13
  %91 = and i32 %90, %89
  store i32 %91, ptr %10, align 4, !tbaa !13
  %92 = load i32, ptr %12, align 4, !tbaa !13
  %93 = call i32 @constant_time_eq_int(i32 noundef %92, i32 noundef 0)
  %94 = and i32 %93, 1
  %95 = zext i32 %94 to i64
  %96 = sub i64 0, %95
  store i64 %96, ptr %19, align 8, !tbaa !23
  %97 = load i32, ptr %12, align 4, !tbaa !13
  %98 = call i32 @constant_time_eq_int(i32 noundef %97, i32 noundef 1)
  %99 = and i32 %98, 1
  %100 = zext i32 %99 to i64
  %101 = sub i64 0, %100
  store i64 %101, ptr %20, align 8, !tbaa !23
  %102 = load i32, ptr %12, align 4, !tbaa !13
  %103 = call i32 @constant_time_eq_int(i32 noundef %102, i32 noundef 2)
  %104 = and i32 %103, 1
  %105 = zext i32 %104 to i64
  %106 = sub i64 0, %105
  store i64 %106, ptr %21, align 8, !tbaa !23
  %107 = load i32, ptr %12, align 4, !tbaa !13
  %108 = call i32 @constant_time_eq_int(i32 noundef %107, i32 noundef 3)
  %109 = and i32 %108, 1
  %110 = zext i32 %109 to i64
  %111 = sub i64 0, %110
  store i64 %111, ptr %22, align 8, !tbaa !23
  store i32 0, ptr %12, align 4, !tbaa !13
  br label %112

112:                                              ; preds = %185, %80
  %113 = load i32, ptr %12, align 4, !tbaa !13
  %114 = load i32, ptr %8, align 4, !tbaa !13
  %115 = icmp slt i32 %113, %114
  br i1 %115, label %116, label %192

116:                                              ; preds = %112
  call void @llvm.lifetime.start.p0(i64 8, ptr %23) #7
  store i64 0, ptr %23, align 8, !tbaa !23
  store i32 0, ptr %13, align 4, !tbaa !13
  br label %117

117:                                              ; preds = %174, %116
  %118 = load i32, ptr %13, align 4, !tbaa !13
  %119 = load i32, ptr %18, align 4, !tbaa !13
  %120 = icmp slt i32 %118, %119
  br i1 %120, label %121, label %177

121:                                              ; preds = %117
  %122 = load ptr, ptr %15, align 8, !tbaa !41
  %123 = load i32, ptr %13, align 4, !tbaa !13
  %124 = load i32, ptr %18, align 4, !tbaa !13
  %125 = mul nsw i32 0, %124
  %126 = add nsw i32 %123, %125
  %127 = sext i32 %126 to i64
  %128 = getelementptr inbounds i64, ptr %122, i64 %127
  %129 = load volatile i64, ptr %128, align 8, !tbaa !23
  %130 = load i64, ptr %19, align 8, !tbaa !23
  %131 = and i64 %129, %130
  %132 = load ptr, ptr %15, align 8, !tbaa !41
  %133 = load i32, ptr %13, align 4, !tbaa !13
  %134 = load i32, ptr %18, align 4, !tbaa !13
  %135 = mul nsw i32 1, %134
  %136 = add nsw i32 %133, %135
  %137 = sext i32 %136 to i64
  %138 = getelementptr inbounds i64, ptr %132, i64 %137
  %139 = load volatile i64, ptr %138, align 8, !tbaa !23
  %140 = load i64, ptr %20, align 8, !tbaa !23
  %141 = and i64 %139, %140
  %142 = or i64 %131, %141
  %143 = load ptr, ptr %15, align 8, !tbaa !41
  %144 = load i32, ptr %13, align 4, !tbaa !13
  %145 = load i32, ptr %18, align 4, !tbaa !13
  %146 = mul nsw i32 2, %145
  %147 = add nsw i32 %144, %146
  %148 = sext i32 %147 to i64
  %149 = getelementptr inbounds i64, ptr %143, i64 %148
  %150 = load volatile i64, ptr %149, align 8, !tbaa !23
  %151 = load i64, ptr %21, align 8, !tbaa !23
  %152 = and i64 %150, %151
  %153 = or i64 %142, %152
  %154 = load ptr, ptr %15, align 8, !tbaa !41
  %155 = load i32, ptr %13, align 4, !tbaa !13
  %156 = load i32, ptr %18, align 4, !tbaa !13
  %157 = mul nsw i32 3, %156
  %158 = add nsw i32 %155, %157
  %159 = sext i32 %158 to i64
  %160 = getelementptr inbounds i64, ptr %154, i64 %159
  %161 = load volatile i64, ptr %160, align 8, !tbaa !23
  %162 = load i64, ptr %22, align 8, !tbaa !23
  %163 = and i64 %161, %162
  %164 = or i64 %153, %163
  %165 = load i32, ptr %13, align 4, !tbaa !13
  %166 = load i32, ptr %10, align 4, !tbaa !13
  %167 = call i32 @constant_time_eq_int(i32 noundef %165, i32 noundef %166)
  %168 = and i32 %167, 1
  %169 = zext i32 %168 to i64
  %170 = sub i64 0, %169
  %171 = and i64 %164, %170
  %172 = load i64, ptr %23, align 8, !tbaa !23
  %173 = or i64 %172, %171
  store i64 %173, ptr %23, align 8, !tbaa !23
  br label %174

174:                                              ; preds = %121
  %175 = load i32, ptr %13, align 4, !tbaa !13
  %176 = add nsw i32 %175, 1
  store i32 %176, ptr %13, align 4, !tbaa !13
  br label %117, !llvm.loop !65

177:                                              ; preds = %117
  %178 = load i64, ptr %23, align 8, !tbaa !23
  %179 = load ptr, ptr %7, align 8, !tbaa !6
  %180 = getelementptr inbounds nuw %struct.bignum_st, ptr %179, i32 0, i32 0
  %181 = load ptr, ptr %180, align 8, !tbaa !22
  %182 = load i32, ptr %12, align 4, !tbaa !13
  %183 = sext i32 %182 to i64
  %184 = getelementptr inbounds i64, ptr %181, i64 %183
  store i64 %178, ptr %184, align 8, !tbaa !23
  call void @llvm.lifetime.end.p0(i64 8, ptr %23) #7
  br label %185

185:                                              ; preds = %177
  %186 = load i32, ptr %12, align 4, !tbaa !13
  %187 = add nsw i32 %186, 1
  store i32 %187, ptr %12, align 4, !tbaa !13
  %188 = load i32, ptr %14, align 4, !tbaa !13
  %189 = load ptr, ptr %15, align 8, !tbaa !41
  %190 = sext i32 %188 to i64
  %191 = getelementptr inbounds i64, ptr %189, i64 %190
  store ptr %191, ptr %15, align 8, !tbaa !41
  br label %112, !llvm.loop !66

192:                                              ; preds = %112
  call void @llvm.lifetime.end.p0(i64 8, ptr %22) #7
  call void @llvm.lifetime.end.p0(i64 8, ptr %21) #7
  call void @llvm.lifetime.end.p0(i64 8, ptr %20) #7
  call void @llvm.lifetime.end.p0(i64 8, ptr %19) #7
  call void @llvm.lifetime.end.p0(i64 4, ptr %18) #7
  br label %193

193:                                              ; preds = %192, %79
  %194 = load i32, ptr %8, align 4, !tbaa !13
  %195 = load ptr, ptr %7, align 8, !tbaa !6
  %196 = getelementptr inbounds nuw %struct.bignum_st, ptr %195, i32 0, i32 1
  store i32 %194, ptr %196, align 8, !tbaa !20
  %197 = load ptr, ptr %7, align 8, !tbaa !6
  call void @bn_correct_top(ptr noundef %197)
  store i32 1, ptr %6, align 4
  store i32 1, ptr %16, align 4
  br label %198

198:                                              ; preds = %193, %32
  call void @llvm.lifetime.end.p0(i64 8, ptr %15) #7
  call void @llvm.lifetime.end.p0(i64 4, ptr %14) #7
  call void @llvm.lifetime.end.p0(i64 4, ptr %13) #7
  call void @llvm.lifetime.end.p0(i64 4, ptr %12) #7
  %199 = load i32, ptr %6, align 4
  ret i32 %199
}