; Function Attrs: nounwind uwtable
define internal fastcc range(i32 0, 2) i32 @copy_from_prebuf(ptr noundef nonnull %0, i32 noundef %1, ptr noundef nonnull %2, i32 noundef %3, i32 noundef range(i32 1, 6) %4) unnamed_addr #0 {
  %6 = shl nuw nsw i32 1, %4
  %7 = sext i32 %1 to i64
  %8 = tail call ptr @bn_wexpand(ptr noundef nonnull %0, i64 noundef %7) #7
  %9 = icmp eq ptr %8, null
  br i1 %9, label %99, label %10

10:                                               ; preds = %5
  %11 = icmp samesign ult i32 %4, 4
  br i1 %11, label %.preheader76, label %25

.preheader76:                                     ; preds = %10
  %12 = icmp sgt i32 %1, 0
  br i1 %12, label %.preheader.lr.ph, label %.loopexit

.preheader.lr.ph:                                 ; preds = %.preheader76
  %13 = load ptr, ptr %0, align 8, !tbaa !17
  %14 = zext nneg i32 %6 to i64
  %15 = zext i32 %3 to i64
  %wide.trip.count359 = zext nneg i32 %1 to i64
  br label %.preheader

.preheader:                                       ; preds = %.preheader.lr.ph, %22
  %indvars.iv356 = phi i64 [ 0, %.preheader.lr.ph ], [ %indvars.iv.next357, %22 ]
  %.067157 = phi ptr [ %2, %.preheader.lr.ph ], [ %24, %22 ]
  br label %16

16:                                               ; preds = %.preheader, %16
  %indvars.iv350 = phi i64 [ 0, %.preheader ], [ %indvars.iv.next351, %16 ]
  %.069155 = phi i64 [ 0, %.preheader ], [ %21, %16 ]
  %17 = getelementptr inbounds nuw i64, ptr %.067157, i64 %indvars.iv350
  %18 = load volatile i64, ptr %17, align 8, !tbaa !18
  %19 = icmp eq i64 %indvars.iv350, %15
  %20 = select i1 %19, i64 %18, i64 0
  %21 = or i64 %20, %.069155
  %indvars.iv.next351 = add nuw nsw i64 %indvars.iv350, 1
  %exitcond355.not = icmp eq i64 %indvars.iv.next351, %14
  br i1 %exitcond355.not, label %22, label %16, !llvm.loop !56

22:                                               ; preds = %16
  %23 = getelementptr inbounds nuw i64, ptr %13, i64 %indvars.iv356
  store i64 %21, ptr %23, align 8, !tbaa !18
  %indvars.iv.next357 = add nuw nsw i64 %indvars.iv356, 1
  %24 = getelementptr inbounds nuw i64, ptr %.067157, i64 %14
  %exitcond360.not = icmp eq i64 %indvars.iv.next357, %wide.trip.count359
  br i1 %exitcond360.not, label %.loopexit, label %.preheader, !llvm.loop !57

25:                                               ; preds = %10
  %26 = add nsw i32 %4, -2
  %27 = shl nuw nsw i32 1, %26
  %28 = ashr i32 %3, %26
  %.fr159 = freeze i32 %28
  %29 = add nsw i32 %27, -1
  %30 = and i32 %29, %3
  %31 = icmp eq i32 %.fr159, 3
  %32 = icmp sgt i32 %1, 0
  br i1 %32, label %.preheader77.lr.ph, label %.loopexit

.preheader77.lr.ph:                               ; preds = %25
  %33 = shl nuw nsw i32 2, %26
  %34 = shl nuw nsw i32 3, %26
  %35 = load ptr, ptr %0, align 8, !tbaa !17
  %36 = zext nneg i32 %6 to i64
  %wide.trip.count194 = zext nneg i32 %1 to i64
  switch i32 %.fr159, label %.preheader77.preheader [
    i32 0, label %.preheader77.us.preheader
    i32 1, label %.preheader77.us97.preheader
    i32 2, label %.preheader77.us100.preheader
  ]

.preheader77.us.preheader:                        ; preds = %.preheader77.lr.ph
  %37 = zext nneg i32 %27 to i64
  %38 = zext nneg i32 %33 to i64
  %39 = zext nneg i32 %34 to i64
  %40 = zext nneg i32 %30 to i64
  br label %.preheader77.us

.preheader77.us:                                  ; preds = %.preheader77.us.preheader, %.split.us.us.split.split.split
  %indvars.iv268 = phi i64 [ 0, %.preheader77.us.preheader ], [ %indvars.iv.next269, %.split.us.us.split.split.split ]
  %.16893.us = phi ptr [ %2, %.preheader77.us.preheader ], [ %51, %.split.us.us.split.split.split ]
  %invariant.gep385 = getelementptr inbounds nuw i64, ptr %.16893.us, i64 %37
  %invariant.gep387 = getelementptr inbounds nuw i64, ptr %.16893.us, i64 %38
  %invariant.gep389 = getelementptr inbounds nuw i64, ptr %.16893.us, i64 %39
  br label %41

41:                                               ; preds = %41, %.preheader77.us
  %indvars.iv262 = phi i64 [ %indvars.iv.next263, %41 ], [ 0, %.preheader77.us ]
  %.080.us.us = phi i64 [ %49, %41 ], [ 0, %.preheader77.us ]
  %42 = getelementptr inbounds nuw i64, ptr %.16893.us, i64 %indvars.iv262
  %43 = load volatile i64, ptr %42, align 8, !tbaa !18
  %gep386 = getelementptr inbounds nuw i64, ptr %invariant.gep385, i64 %indvars.iv262
  %44 = load volatile i64, ptr %gep386, align 8, !tbaa !18
  %gep388 = getelementptr inbounds nuw i64, ptr %invariant.gep387, i64 %indvars.iv262
  %45 = load volatile i64, ptr %gep388, align 8, !tbaa !18
  %gep390 = getelementptr inbounds nuw i64, ptr %invariant.gep389, i64 %indvars.iv262
  %46 = load volatile i64, ptr %gep390, align 8, !tbaa !18
  %47 = icmp eq i64 %indvars.iv262, %40
  %48 = select i1 %47, i64 %43, i64 0
  %49 = or i64 %48, %.080.us.us
  %indvars.iv.next263 = add nuw nsw i64 %indvars.iv262, 1
  %exitcond267.not = icmp eq i64 %indvars.iv.next263, %37
  br i1 %exitcond267.not, label %.split.us.us.split.split.split, label %41, !llvm.loop !58

.split.us.us.split.split.split:                   ; preds = %41
  %50 = getelementptr inbounds nuw i64, ptr %35, i64 %indvars.iv268
  store i64 %49, ptr %50, align 8, !tbaa !18
  %indvars.iv.next269 = add nuw nsw i64 %indvars.iv268, 1
  %51 = getelementptr inbounds nuw i64, ptr %.16893.us, i64 %36
  %exitcond272.not = icmp eq i64 %indvars.iv.next269, %wide.trip.count194
  br i1 %exitcond272.not, label %.loopexit, label %.preheader77.us, !llvm.loop !59

.preheader77.us97.preheader:                      ; preds = %.preheader77.lr.ph
  %52 = zext nneg i32 %27 to i64
  %53 = zext nneg i32 %33 to i64
  %54 = zext nneg i32 %34 to i64
  %55 = zext nneg i32 %30 to i64
  br label %.preheader77.us97

.preheader77.us97:                                ; preds = %.preheader77.us97.preheader, %.split.split.us.us.split.split
  %indvars.iv224 = phi i64 [ 0, %.preheader77.us97.preheader ], [ %indvars.iv.next225, %.split.split.us.us.split.split ]
  %.16893.us99 = phi ptr [ %2, %.preheader77.us97.preheader ], [ %66, %.split.split.us.us.split.split ]
  %invariant.gep379 = getelementptr inbounds nuw i64, ptr %.16893.us99, i64 %52
  %invariant.gep381 = getelementptr inbounds nuw i64, ptr %.16893.us99, i64 %53
  %invariant.gep383 = getelementptr inbounds nuw i64, ptr %.16893.us99, i64 %54
  br label %56

56:                                               ; preds = %56, %.preheader77.us97
  %indvars.iv218 = phi i64 [ %indvars.iv.next219, %56 ], [ 0, %.preheader77.us97 ]
  %.080.us81.us = phi i64 [ %64, %56 ], [ 0, %.preheader77.us97 ]
  %57 = getelementptr inbounds nuw i64, ptr %.16893.us99, i64 %indvars.iv218
  %58 = load volatile i64, ptr %57, align 8, !tbaa !18
  %gep380 = getelementptr inbounds nuw i64, ptr %invariant.gep379, i64 %indvars.iv218
  %59 = load volatile i64, ptr %gep380, align 8, !tbaa !18
  %gep382 = getelementptr inbounds nuw i64, ptr %invariant.gep381, i64 %indvars.iv218
  %60 = load volatile i64, ptr %gep382, align 8, !tbaa !18
  %gep384 = getelementptr inbounds nuw i64, ptr %invariant.gep383, i64 %indvars.iv218
  %61 = load volatile i64, ptr %gep384, align 8, !tbaa !18
  %62 = icmp eq i64 %indvars.iv218, %55
  %63 = select i1 %62, i64 %59, i64 0
  %64 = or i64 %63, %.080.us81.us
  %indvars.iv.next219 = add nuw nsw i64 %indvars.iv218, 1
  %exitcond223.not = icmp eq i64 %indvars.iv.next219, %52
  br i1 %exitcond223.not, label %.split.split.us.us.split.split, label %56, !llvm.loop !58

.split.split.us.us.split.split:                   ; preds = %56
  %65 = getelementptr inbounds nuw i64, ptr %35, i64 %indvars.iv224
  store i64 %64, ptr %65, align 8, !tbaa !18
  %indvars.iv.next225 = add nuw nsw i64 %indvars.iv224, 1
  %66 = getelementptr inbounds nuw i64, ptr %.16893.us99, i64 %36
  %exitcond228.not = icmp eq i64 %indvars.iv.next225, %wide.trip.count194
  br i1 %exitcond228.not, label %.loopexit, label %.preheader77.us97, !llvm.loop !59

.preheader77.preheader:                           ; preds = %.preheader77.lr.ph
  %67 = zext nneg i32 %30 to i64
  %68 = zext nneg i32 %27 to i64
  %69 = zext nneg i32 %33 to i64
  %70 = zext nneg i32 %34 to i64
  br label %.preheader77

.preheader77.us100.preheader:                     ; preds = %.preheader77.lr.ph
  %71 = zext nneg i32 %27 to i64
  %72 = zext nneg i32 %33 to i64
  %73 = zext nneg i32 %34 to i64
  %74 = zext nneg i32 %30 to i64
  br label %.preheader77.us100

.preheader77.us100:                               ; preds = %.preheader77.us100.preheader, %.split.split.split.us.us.split
  %indvars.iv202 = phi i64 [ 0, %.preheader77.us100.preheader ], [ %indvars.iv.next203, %.split.split.split.us.us.split ]
  %.16893.us102 = phi ptr [ %2, %.preheader77.us100.preheader ], [ %85, %.split.split.split.us.us.split ]
  %invariant.gep373 = getelementptr inbounds nuw i64, ptr %.16893.us102, i64 %71
  %invariant.gep375 = getelementptr inbounds nuw i64, ptr %.16893.us102, i64 %72
  %invariant.gep377 = getelementptr inbounds nuw i64, ptr %.16893.us102, i64 %73
  br label %75

75:                                               ; preds = %75, %.preheader77.us100
  %indvars.iv196 = phi i64 [ %indvars.iv.next197, %75 ], [ 0, %.preheader77.us100 ]
  %.080.us87.us = phi i64 [ %83, %75 ], [ 0, %.preheader77.us100 ]
  %76 = getelementptr inbounds nuw i64, ptr %.16893.us102, i64 %indvars.iv196
  %77 = load volatile i64, ptr %76, align 8, !tbaa !18
  %gep374 = getelementptr inbounds nuw i64, ptr %invariant.gep373, i64 %indvars.iv196
  %78 = load volatile i64, ptr %gep374, align 8, !tbaa !18
  %gep376 = getelementptr inbounds nuw i64, ptr %invariant.gep375, i64 %indvars.iv196
  %79 = load volatile i64, ptr %gep376, align 8, !tbaa !18
  %gep378 = getelementptr inbounds nuw i64, ptr %invariant.gep377, i64 %indvars.iv196
  %80 = load volatile i64, ptr %gep378, align 8, !tbaa !18
  %81 = icmp eq i64 %indvars.iv196, %74
  %82 = select i1 %81, i64 %79, i64 0
  %83 = or i64 %82, %.080.us87.us
  %indvars.iv.next197 = add nuw nsw i64 %indvars.iv196, 1
  %exitcond201.not = icmp eq i64 %indvars.iv.next197, %71
  br i1 %exitcond201.not, label %.split.split.split.us.us.split, label %75, !llvm.loop !58

.split.split.split.us.us.split:                   ; preds = %75
  %84 = getelementptr inbounds nuw i64, ptr %35, i64 %indvars.iv202
  store i64 %83, ptr %84, align 8, !tbaa !18
  %indvars.iv.next203 = add nuw nsw i64 %indvars.iv202, 1
  %85 = getelementptr inbounds nuw i64, ptr %.16893.us102, i64 %36
  %exitcond206.not = icmp eq i64 %indvars.iv.next203, %wide.trip.count194
  br i1 %exitcond206.not, label %.loopexit, label %.preheader77.us100, !llvm.loop !59

.preheader77:                                     ; preds = %.preheader77.preheader, %.split.split.split
  %indvars.iv191 = phi i64 [ 0, %.preheader77.preheader ], [ %indvars.iv.next192, %.split.split.split ]
  %.16893 = phi ptr [ %2, %.preheader77.preheader ], [ %97, %.split.split.split ]
  %invariant.gep = getelementptr inbounds nuw i64, ptr %.16893, i64 %68
  %invariant.gep369 = getelementptr inbounds nuw i64, ptr %.16893, i64 %69
  %invariant.gep371 = getelementptr inbounds nuw i64, ptr %.16893, i64 %70
  br label %86

86:                                               ; preds = %.preheader77, %86
  %indvars.iv = phi i64 [ 0, %.preheader77 ], [ %indvars.iv.next, %86 ]
  %.080 = phi i64 [ 0, %.preheader77 ], [ %95, %86 ]
  %87 = getelementptr inbounds nuw i64, ptr %.16893, i64 %indvars.iv
  %88 = load volatile i64, ptr %87, align 8, !tbaa !18
  %gep = getelementptr inbounds nuw i64, ptr %invariant.gep, i64 %indvars.iv
  %89 = load volatile i64, ptr %gep, align 8, !tbaa !18
  %gep370 = getelementptr inbounds nuw i64, ptr %invariant.gep369, i64 %indvars.iv
  %90 = load volatile i64, ptr %gep370, align 8, !tbaa !18
  %gep372 = getelementptr inbounds nuw i64, ptr %invariant.gep371, i64 %indvars.iv
  %91 = load volatile i64, ptr %gep372, align 8, !tbaa !18
  %92 = icmp eq i64 %indvars.iv, %67
  %93 = and i1 %92, %31
  %94 = select i1 %93, i64 %91, i64 0
  %95 = or i64 %94, %.080
  %indvars.iv.next = add nuw nsw i64 %indvars.iv, 1
  %exitcond.not = icmp eq i64 %indvars.iv.next, %68
  br i1 %exitcond.not, label %.split.split.split, label %86, !llvm.loop !58

.split.split.split:                               ; preds = %86
  %96 = getelementptr inbounds nuw i64, ptr %35, i64 %indvars.iv191
  store i64 %95, ptr %96, align 8, !tbaa !18
  %indvars.iv.next192 = add nuw nsw i64 %indvars.iv191, 1
  %97 = getelementptr inbounds nuw i64, ptr %.16893, i64 %36
  %exitcond195.not = icmp eq i64 %indvars.iv.next192, %wide.trip.count194
  br i1 %exitcond195.not, label %.loopexit, label %.preheader77, !llvm.loop !59

.loopexit:                                        ; preds = %.split.split.split.us.us.split, %.split.split.us.us.split.split, %.split.us.us.split.split.split, %.split.split.split, %22, %25, %.preheader76
  %98 = getelementptr inbounds nuw i8, ptr %0, i64 8
  store i32 %1, ptr %98, align 8, !tbaa !15
  tail call void @bn_correct_top(ptr noundef nonnull %0) #7
  br label %99

99:                                               ; preds = %5, %.loopexit
  %.063 = phi i32 [ 1, %.loopexit ], [ 0, %5 ]
  ret i32 %.063
}